target datalayout = "e-m:e-p270:32:32-p271:32:32-p272:64:64-i64:64-i128:128-f80:128-n8:16:32:64-S128"
target triple = "x86_64-unknown-linux-gnu"

%"class.std::__cxx11::basic_string" = type { %"struct.std::__cxx11::basic_string<char>::_Alloc_hider", i64, %union.anon }
%"struct.std::__cxx11::basic_string<char>::_Alloc_hider" = type { ptr }
%union.anon = type { i64, [8 x i8] }
%"struct.pbrt::FileLoc" = type { %"class.std::basic_string_view", i32, i32 }
%"class.std::basic_string_view" = type { i64, ptr }
%"class.std::function" = type { %"class.std::_Function_base", ptr }
%"class.std::_Function_base" = type { %"union.std::_Any_data", ptr }
%"union.std::_Any_data" = type { %"union.std::_Nocopy_types" }
%"union.std::_Nocopy_types" = type { { i64, i64 } }
%"class.pbrt::Tokenizer" = type { %"struct.pbrt::FileLoc", %"class.std::function", ptr, i64, %"class.std::__cxx11::basic_string", ptr, ptr, %"class.std::__cxx11::basic_string" }

@.str.28 = private unnamed_addr constant [115 x i8] c"File is encoded with UTF-16, which is not currently supported by pbrt (https://github.com/mmp/pbrt-v4/issues/136).\00", align 1

; Function Attrs: mustprogress nounwind uwtable
define linkonce_odr dso_local noundef zeroext i1 @_ZNKSt14_Function_base8_M_emptyEv(ptr noundef nonnull align 8 dereferenceable(24) %this) #2 comdat align 2 {
entry:
  %this.addr = alloca ptr, align 8
  store ptr %this, ptr %this.addr, align 8
  %this1 = load ptr, ptr %this.addr, align 8
  %_M_manager = getelementptr inbounds %"class.std::_Function_base", ptr %this1, i32 0, i32 1
  %0 = load ptr, ptr %_M_manager, align 8
  %tobool = icmp ne ptr %0, null
  %lnot = xor i1 %tobool, true
  ret i1 %lnot
}

; Function Attrs: mustprogress uwtable
define linkonce_odr dso_local void @_ZNKSt8functionIFvPKcPKN4pbrt7FileLocEEEclES1_S5_(ptr noundef nonnull align 8 dereferenceable(32) %this, ptr noundef %__args, ptr noundef %__args1) #1 comdat align 2 {
entry:
  %this.addr = alloca ptr, align 8
  %__args.addr = alloca ptr, align 8
  %__args.addr2 = alloca ptr, align 8
  store ptr %this, ptr %this.addr, align 8
  store ptr %__args, ptr %__args.addr, align 8
  store ptr %__args1, ptr %__args.addr2, align 8
  %this3 = load ptr, ptr %this.addr, align 8
  %call = call noundef zeroext i1 @_ZNKSt14_Function_base8_M_emptyEv(ptr noundef nonnull align 8 dereferenceable(24) %this3)
  br i1 %call, label %if.then, label %if.end

if.then:                                          ; preds = %entry
  call void @_ZSt25__throw_bad_function_callv() #17
  unreachable

if.end:                                           ; preds = %entry
  %_M_invoker = getelementptr inbounds %"class.std::function", ptr %this3, i32 0, i32 1
  %0 = load ptr, ptr %_M_invoker, align 8
  %_M_functor = getelementptr inbounds %"class.std::_Function_base", ptr %this3, i32 0, i32 0
  call void %0(ptr noundef nonnull align 8 dereferenceable(16) %_M_functor, ptr noundef nonnull align 8 dereferenceable(8) %__args.addr, ptr noundef nonnull align 8 dereferenceable(8) %__args.addr2)
  ret void
}

; Function Attrs: mustprogress uwtable
define dso_local void @_ZNK4pbrt9Tokenizer8CheckUTFEPKvi(ptr noundef nonnull align 8 dereferenceable(152) %this, ptr noundef %ptr, i32 noundef %len) #1 align 2 {
entry:
  %this.addr = alloca ptr, align 8
  %ptr.addr = alloca ptr, align 8
  %len.addr = alloca i32, align 4
  %c = alloca ptr, align 8
  store ptr %this, ptr %this.addr, align 8
  store ptr %ptr, ptr %ptr.addr, align 8
  store i32 %len, ptr %len.addr, align 4
  %this1 = load ptr, ptr %this.addr, align 8
  %0 = load ptr, ptr %ptr.addr, align 8
  store ptr %0, ptr %c, align 8
  %1 = load i32, ptr %len.addr, align 4
  %cmp = icmp sge i32 %1, 2
  br i1 %cmp, label %land.lhs.true, label %if.end

land.lhs.true:                                    ; preds = %entry
  %2 = load ptr, ptr %c, align 8
  %arrayidx = getelementptr inbounds i8, ptr %2, i64 0
  %3 = load i8, ptr %arrayidx, align 1
  %conv = zext i8 %3 to i32
  %cmp2 = icmp eq i32 %conv, 254
  br i1 %cmp2, label %land.lhs.true3, label %lor.lhs.false

land.lhs.true3:                                   ; preds = %land.lhs.true
  %4 = load ptr, ptr %c, align 8
  %arrayidx4 = getelementptr inbounds i8, ptr %4, i64 1
  %5 = load i8, ptr %arrayidx4, align 1
  %conv5 = zext i8 %5 to i32
  %cmp6 = icmp eq i32 %conv5, 255
  br i1 %cmp6, label %if.then, label %lor.lhs.false

lor.lhs.false:                                    ; preds = %land.lhs.true3, %land.lhs.true
  %6 = load ptr, ptr %c, align 8
  %arrayidx7 = getelementptr inbounds i8, ptr %6, i64 0
  %7 = load i8, ptr %arrayidx7, align 1
  %conv8 = zext i8 %7 to i32
  %cmp9 = icmp eq i32 %conv8, 255
  br i1 %cmp9, label %land.lhs.true10, label %if.end

land.lhs.true10:                                  ; preds = %lor.lhs.false
  %8 = load ptr, ptr %c, align 8
  %arrayidx11 = getelementptr inbounds i8, ptr %8, i64 1
  %9 = load i8, ptr %arrayidx11, align 1
  %conv12 = zext i8 %9 to i32
  %cmp13 = icmp eq i32 %conv12, 254
  br i1 %cmp13, label %if.then, label %if.end

if.then:                                          ; preds = %land.lhs.true10, %land.lhs.true3
  %errorCallback = getelementptr inbounds %"class.pbrt::Tokenizer", ptr %this1, i32 0, i32 1
  %loc = getelementptr inbounds %"class.pbrt::Tokenizer", ptr %this1, i32 0, i32 0
  call void @_ZNKSt8functionIFvPKcPKN4pbrt7FileLocEEEclES1_S5_(ptr noundef nonnull align 8 dereferenceable(32) %errorCallback, ptr noundef @.str.28, ptr noundef %loc)
  br label %if.end

if.end:                                           ; preds = %if.then, %land.lhs.true10, %lor.lhs.false, %entry
  ret void
}