; Function Attrs: mustprogress uwtable
define dso_local void @_ZNK4pbrt9Tokenizer8CheckUTFEPKvi(ptr noundef nonnull align 8 dereferenceable(152) %this, ptr nocapture noundef readonly %ptr, i32 noundef %len) local_unnamed_addr #3 align 2 {
entry:
  %__args.addr.i = alloca ptr, align 8
  %__args.addr2.i = alloca ptr, align 8
  %cmp = icmp sgt i32 %len, 1
  br i1 %cmp, label %land.lhs.true, label %if.end

land.lhs.true:                                    ; preds = %entry
  %0 = load i8, ptr %ptr, align 1
  switch i8 %0, label %if.end [
    i8 -2, label %land.lhs.true3
    i8 -1, label %land.lhs.true10
  ]

land.lhs.true3:                                   ; preds = %land.lhs.true
  %arrayidx4 = getelementptr inbounds i8, ptr %ptr, i64 1
  %1 = load i8, ptr %arrayidx4, align 1
  %cmp6 = icmp eq i8 %1, -1
  br i1 %cmp6, label %if.then, label %if.end

land.lhs.true10:                                  ; preds = %land.lhs.true
  %arrayidx11 = getelementptr inbounds i8, ptr %ptr, i64 1
  %2 = load i8, ptr %arrayidx11, align 1
  %cmp13 = icmp eq i8 %2, -2
  br i1 %cmp13, label %if.then, label %if.end

if.then:                                          ; preds = %land.lhs.true10, %land.lhs.true3
  call void @llvm.lifetime.start.p0(i64 8, ptr nonnull %__args.addr.i)
  call void @llvm.lifetime.start.p0(i64 8, ptr nonnull %__args.addr2.i)
  store ptr @.str.28, ptr %__args.addr.i, align 8
  store ptr %this, ptr %__args.addr2.i, align 8
  %_M_manager.i.i = getelementptr inbounds i8, ptr %this, i64 40
  %3 = load ptr, ptr %_M_manager.i.i, align 8
  %tobool.not.i.i = icmp eq ptr %3, null
  br i1 %tobool.not.i.i, label %if.then.i, label %_ZNKSt8functionIFvPKcPKN4pbrt7FileLocEEEclES1_S5_.exit

if.then.i:                                        ; preds = %if.then
  tail call void @_ZSt25__throw_bad_function_callv() #31
  unreachable

_ZNKSt8functionIFvPKcPKN4pbrt7FileLocEEEclES1_S5_.exit: ; preds = %if.then
  %errorCallback = getelementptr inbounds i8, ptr %this, i64 24
  %_M_invoker.i = getelementptr inbounds i8, ptr %this, i64 48
  %4 = load ptr, ptr %_M_invoker.i, align 8
  call void %4(ptr noundef nonnull align 8 dereferenceable(16) %errorCallback, ptr noundef nonnull align 8 dereferenceable(8) %__args.addr.i, ptr noundef nonnull align 8 dereferenceable(8) %__args.addr2.i)
  call void @llvm.lifetime.end.p0(i64 8, ptr nonnull %__args.addr.i)
  call void @llvm.lifetime.end.p0(i64 8, ptr nonnull %__args.addr2.i)
  br label %if.end

if.end:                                           ; preds = %land.lhs.true, %land.lhs.true3, %_ZNKSt8functionIFvPKcPKN4pbrt7FileLocEEEclES1_S5_.exit, %land.lhs.true10, %entry
  ret void
}